target datalayout = "e-m:e-p270:32:32-p271:32:32-p272:64:64-i64:64-i128:128-f80:128-n8:16:32:64-S128"
target triple = "x86_64-pc-linux-gnu"

%struct.dlist_node = type { ptr, ptr }
%struct.dsm_segment = type { %struct.dlist_node, ptr, i32, i32, ptr, ptr, i64, %struct.slist_head }
%struct.slist_head = type { %struct.slist_node }
%struct.slist_node = type { ptr }
%struct.dsm_segment_detach_callback = type { ptr, i64, %struct.slist_node }

@TopMemoryContext = external global ptr, align 8

; Function Attrs: inlinehint nounwind uwtable
define internal void @slist_push_head(ptr noundef %0, ptr noundef %1) #4 {
  %3 = alloca ptr, align 8
  %4 = alloca ptr, align 8
  store ptr %0, ptr %3, align 8
  store ptr %1, ptr %4, align 8
  %5 = load ptr, ptr %3, align 8
  %6 = getelementptr inbounds nuw %struct.slist_head, ptr %5, i32 0, i32 0
  %7 = getelementptr inbounds nuw %struct.slist_node, ptr %6, i32 0, i32 0
  %8 = load ptr, ptr %7, align 8
  %9 = load ptr, ptr %4, align 8
  %10 = getelementptr inbounds nuw %struct.slist_node, ptr %9, i32 0, i32 0
  store ptr %8, ptr %10, align 8
  %11 = load ptr, ptr %4, align 8
  %12 = load ptr, ptr %3, align 8
  %13 = getelementptr inbounds nuw %struct.slist_head, ptr %12, i32 0, i32 0
  %14 = getelementptr inbounds nuw %struct.slist_node, ptr %13, i32 0, i32 0
  store ptr %11, ptr %14, align 8
  ret void
}

; Function Attrs: nounwind uwtable
define dso_local void @on_dsm_detach(ptr noundef %0, ptr noundef %1, i64 noundef %2) #0 {
  %4 = alloca ptr, align 8
  %5 = alloca ptr, align 8
  %6 = alloca i64, align 8
  %7 = alloca ptr, align 8
  store ptr %0, ptr %4, align 8
  store ptr %1, ptr %5, align 8
  store i64 %2, ptr %6, align 8
  call void @llvm.lifetime.start.p0(i64 8, ptr %7) #8
  %8 = load ptr, ptr @TopMemoryContext, align 8
  %9 = call ptr @MemoryContextAlloc(ptr noundef %8, i64 noundef 24)
  store ptr %9, ptr %7, align 8
  %10 = load ptr, ptr %5, align 8
  %11 = load ptr, ptr %7, align 8
  %12 = getelementptr inbounds nuw %struct.dsm_segment_detach_callback, ptr %11, i32 0, i32 0
  store ptr %10, ptr %12, align 8
  %13 = load i64, ptr %6, align 8
  %14 = load ptr, ptr %7, align 8
  %15 = getelementptr inbounds nuw %struct.dsm_segment_detach_callback, ptr %14, i32 0, i32 1
  store i64 %13, ptr %15, align 8
  %16 = load ptr, ptr %4, align 8
  %17 = getelementptr inbounds nuw %struct.dsm_segment, ptr %16, i32 0, i32 7
  %18 = load ptr, ptr %7, align 8
  %19 = getelementptr inbounds nuw %struct.dsm_segment_detach_callback, ptr %18, i32 0, i32 2
  call void @slist_push_head(ptr noundef %17, ptr noundef %19)
  call void @llvm.lifetime.end.p0(i64 8, ptr %7) #8
  ret void
}