; Function Attrs: nounwind uwtable
define dso_local void @on_dsm_detach(ptr noundef captures(none) %0, ptr noundef %1, i64 noundef %2) local_unnamed_addr #0 {
  %4 = load ptr, ptr @TopMemoryContext, align 8
  %5 = tail call ptr @MemoryContextAlloc(ptr noundef %4, i64 noundef 24) #12
  store ptr %1, ptr %5, align 8
  %6 = getelementptr inbounds nuw i8, ptr %5, i64 8
  store i64 %2, ptr %6, align 8
  %7 = getelementptr inbounds nuw i8, ptr %0, i64 56
  %8 = getelementptr inbounds nuw i8, ptr %5, i64 16
  %9 = load ptr, ptr %7, align 8
  store ptr %9, ptr %8, align 8
  store ptr %8, ptr %7, align 8
  ret void
}